target datalayout = "e-m:e-p270:32:32-p271:32:32-p272:64:64-i64:64-i128:128-f80:128-n8:16:32:64-S128"
target triple = "x86_64-pc-linux-gnu"

%class.rational = type { %class.mpq }
%class.mpq = type { %class.mpz, %class.mpz }
%class.mpz = type { i32, i8, ptr }
%class.svector.9 = type { %class.vector.10 }
%class.vector.10 = type { ptr }
%"class.dd::pdd_manager" = type { %class.svector, %class.vector.0, %class.ptr_hashtable, %class.hashtable, %class.hashtable.3, %class.map, %class.svector.9, ptr, %class.svector.9, %class.svector.9, %class.svector.9, %class.svector.9, %class.small_object_allocator, %class.svector.9, i32, %class.svector.9, %class.svector.9, %class.svector.11, i8, i8, i32, i32, %class.svector.9, %class.svector.9, %class.rational, %class.rational, i32, %class.rational, %class.svector.9, i32, %class.svector.9, %class.svector.9, %class.rational, %class.rational }
%class.svector = type { %class.vector }
%class.vector = type { ptr }
%class.vector.0 = type { ptr }
%class.ptr_hashtable = type { %class.core_hashtable.base, [4 x i8] }
%class.core_hashtable.base = type <{ ptr, i32, i32, i32 }>
%class.hashtable = type { %class.core_hashtable.base.2, [4 x i8] }
%class.core_hashtable.base.2 = type <{ ptr, i32, i32, i32 }>
%class.hashtable.3 = type { %class.core_hashtable.base.5, [4 x i8] }
%class.core_hashtable.base.5 = type <{ ptr, i32, i32, i32 }>
%class.map = type { %class.table2map }
%class.table2map = type { %class.core_hashtable.7 }
%class.core_hashtable.7 = type <{ ptr, i32, i32, i32, [4 x i8] }>
%class.small_object_allocator = type { [32 x ptr], [32 x ptr], i64 }
%class.svector.11 = type { %class.vector.12 }
%class.vector.12 = type { ptr }
%"struct.dd::pdd_manager::node" = type { i32, i32, i32, i32 }
%class.default_hash_entry.21 = type { i32, i32, %"struct.dd::pdd_manager::node" }

@_ZTIN2dd11pdd_manager7mem_outE = linkonce_odr hidden constant { ptr, ptr } { ptr getelementptr inbounds (ptr, ptr @_ZTVN10__cxxabiv117__class_type_infoE, i64 2), ptr @_ZTSN2dd11pdd_manager7mem_outE }, comdat, align 8

; Function Attrs: mustprogress nounwind uwtable
define linkonce_odr hidden noundef nonnull align 4 dereferenceable(4) ptr @_ZN6vectorIjLb0EjEixEj(ptr noundef nonnull align 8 dereferenceable(8) %0, i32 noundef %1) #5 comdat align 2 {
  %3 = alloca ptr, align 8
  %4 = alloca i32, align 4
  store ptr %0, ptr %3, align 8, !tbaa !91
  store i32 %1, ptr %4, align 4, !tbaa !8
  %5 = load ptr, ptr %3, align 8
  %6 = getelementptr inbounds nuw %class.vector.10, ptr %5, i32 0, i32 0
  %7 = load ptr, ptr %6, align 8, !tbaa !94
  %8 = load i32, ptr %4, align 4, !tbaa !8
  %9 = zext i32 %8 to i64
  %10 = getelementptr inbounds nuw i32, ptr %7, i64 %9
  ret ptr %10
}

; Function Attrs: mustprogress nounwind uwtable
define linkonce_odr hidden noundef i32 @_ZNK6vectorIjLb0EjE4sizeEv(ptr noundef nonnull align 8 dereferenceable(8) %0) #5 comdat align 2 {
  %2 = alloca i32, align 4
  %3 = alloca ptr, align 8
  store ptr %0, ptr %3, align 8, !tbaa !91
  %4 = load ptr, ptr %3, align 8
  %5 = getelementptr inbounds nuw %class.vector.10, ptr %4, i32 0, i32 0
  %6 = load ptr, ptr %5, align 8, !tbaa !94
  %7 = icmp eq ptr %6, null
  br i1 %7, label %8, label %9

8:                                                ; preds = %1
  store i32 0, ptr %2, align 4
  br label %14

9:                                                ; preds = %1
  %10 = getelementptr inbounds nuw %class.vector.10, ptr %4, i32 0, i32 0
  %11 = load ptr, ptr %10, align 8, !tbaa !94
  %12 = getelementptr inbounds i32, ptr %11, i64 -1
  %13 = load i32, ptr %12, align 4, !tbaa !8
  store i32 %13, ptr %2, align 4
  br label %14

14:                                               ; preds = %9, %8
  %15 = load i32, ptr %2, align 4
  ret i32 %15
}

; Function Attrs: mustprogress uwtable
define linkonce_odr hidden noundef zeroext i1 @_ZN14core_hashtableI18default_hash_entryIN2dd11pdd_manager4nodeEENS2_9hash_nodeENS2_7eq_nodeEE24insert_if_not_there_coreERKS3_RPS4_(ptr noundef nonnull align 8 dereferenceable(20) %0, ptr noundef nonnull align 4 dereferenceable(16) %1, ptr noundef nonnull align 8 dereferenceable(8) %2) #4 comdat align 2 {
  %4 = alloca ptr, align 8
  %5 = alloca ptr, align 8
  %6 = alloca ptr, align 8
  %7 = alloca %"struct.dd::pdd_manager::node", align 4
  store ptr %0, ptr %4, align 8, !tbaa !102
  store ptr %1, ptr %5, align 8, !tbaa !124
  store ptr %2, ptr %6, align 8, !tbaa !360
  %8 = load ptr, ptr %4, align 8
  call void @llvm.lifetime.start.p0(i64 16, ptr %7) #3
  %9 = load ptr, ptr %5, align 8, !tbaa !124
  call void @llvm.memcpy.p0.p0.i64(ptr align 4 %7, ptr align 4 %9, i64 16, i1 false), !tbaa.struct !125
  %10 = load ptr, ptr %6, align 8, !tbaa !360
  %11 = call noundef zeroext i1 @_ZN14core_hashtableI18default_hash_entryIN2dd11pdd_manager4nodeEENS2_9hash_nodeENS2_7eq_nodeEE24insert_if_not_there_coreEOS3_RPS4_(ptr noundef nonnull align 8 dereferenceable(20) %8, ptr noundef nonnull align 4 dereferenceable(16) %7, ptr noundef nonnull align 8 dereferenceable(8) %10)
  call void @llvm.lifetime.end.p0(i64 16, ptr %7) #3
  ret i1 %11
}

; Function Attrs: mustprogress nounwind uwtable
define linkonce_odr hidden noundef nonnull align 4 dereferenceable(16) ptr @_ZN6vectorIN2dd11pdd_manager4nodeELb0EjEixEj(ptr noundef nonnull align 8 dereferenceable(8) %0, i32 noundef %1) #5 comdat align 2 {
  %3 = alloca ptr, align 8
  %4 = alloca i32, align 4
  store ptr %0, ptr %3, align 8, !tbaa !108
  store i32 %1, ptr %4, align 4, !tbaa !8
  %5 = load ptr, ptr %3, align 8
  %6 = getelementptr inbounds nuw %class.vector, ptr %5, i32 0, i32 0
  %7 = load ptr, ptr %6, align 8, !tbaa !123
  %8 = load i32, ptr %4, align 4, !tbaa !8
  %9 = zext i32 %8 to i64
  %10 = getelementptr inbounds nuw %"struct.dd::pdd_manager::node", ptr %7, i64 %9
  ret ptr %10
}

; Function Attrs: mustprogress nounwind uwtable
define linkonce_odr hidden void @_ZN6vectorIjLb0EjE8pop_backEv(ptr noundef nonnull align 8 dereferenceable(8) %0) #5 comdat align 2 {
  %2 = alloca ptr, align 8
  store ptr %0, ptr %2, align 8, !tbaa !91
  %3 = load ptr, ptr %2, align 8
  %4 = getelementptr inbounds nuw %class.vector.10, ptr %3, i32 0, i32 0
  %5 = load ptr, ptr %4, align 8, !tbaa !94
  %6 = getelementptr inbounds i32, ptr %5, i64 -1
  %7 = load i32, ptr %6, align 4, !tbaa !8
  %8 = add i32 %7, -1
  store i32 %8, ptr %6, align 4, !tbaa !8
  ret void
}

; Function Attrs: mustprogress nounwind uwtable
define linkonce_odr hidden noundef nonnull align 4 dereferenceable(4) ptr @_ZN6vectorIjLb0EjE4backEv(ptr noundef nonnull align 8 dereferenceable(8) %0) #5 comdat align 2 {
  %2 = alloca ptr, align 8
  store ptr %0, ptr %2, align 8, !tbaa !91
  %3 = load ptr, ptr %2, align 8
  %4 = call noundef i32 @_ZNK6vectorIjLb0EjE4sizeEv(ptr noundef nonnull align 8 dereferenceable(8) %3)
  %5 = sub i32 %4, 1
  %6 = call noundef nonnull align 4 dereferenceable(4) ptr @_ZN6vectorIjLb0EjEixEj(ptr noundef nonnull align 8 dereferenceable(8) %3, i32 noundef %5)
  ret ptr %6
}

; Function Attrs: mustprogress nounwind uwtable
define linkonce_odr hidden noundef i32 @_ZNK6vectorIN2dd11pdd_manager4nodeELb0EjE4sizeEv(ptr noundef nonnull align 8 dereferenceable(8) %0) #5 comdat align 2 {
  %2 = alloca i32, align 4
  %3 = alloca ptr, align 8
  store ptr %0, ptr %3, align 8, !tbaa !108
  %4 = load ptr, ptr %3, align 8
  %5 = getelementptr inbounds nuw %class.vector, ptr %4, i32 0, i32 0
  %6 = load ptr, ptr %5, align 8, !tbaa !123
  %7 = icmp eq ptr %6, null
  br i1 %7, label %8, label %9

8:                                                ; preds = %1
  store i32 0, ptr %2, align 4
  br label %14

9:                                                ; preds = %1
  %10 = getelementptr inbounds nuw %class.vector, ptr %4, i32 0, i32 0
  %11 = load ptr, ptr %10, align 8, !tbaa !123
  %12 = getelementptr inbounds i32, ptr %11, i64 -1
  %13 = load i32, ptr %12, align 4, !tbaa !8
  store i32 %13, ptr %2, align 4
  br label %14

14:                                               ; preds = %9, %8
  %15 = load i32, ptr %2, align 4
  ret i32 %15
}

; Function Attrs: mustprogress nounwind uwtable
define linkonce_odr hidden noundef zeroext i1 @_ZNK6vectorIjLb0EjE5emptyEv(ptr noundef nonnull align 8 dereferenceable(8) %0) #5 comdat align 2 {
  %2 = alloca ptr, align 8
  store ptr %0, ptr %2, align 8, !tbaa !91
  %3 = load ptr, ptr %2, align 8
  %4 = getelementptr inbounds nuw %class.vector.10, ptr %3, i32 0, i32 0
  %5 = load ptr, ptr %4, align 8, !tbaa !94
  %6 = icmp eq ptr %5, null
  br i1 %6, label %13, label %7

7:                                                ; preds = %1
  %8 = getelementptr inbounds nuw %class.vector.10, ptr %3, i32 0, i32 0
  %9 = load ptr, ptr %8, align 8, !tbaa !94
  %10 = getelementptr inbounds i32, ptr %9, i64 -1
  %11 = load i32, ptr %10, align 4, !tbaa !8
  %12 = icmp eq i32 %11, 0
  br label %13

13:                                               ; preds = %7, %1
  %14 = phi i1 [ true, %1 ], [ %12, %7 ]
  ret i1 %14
}

; Function Attrs: mustprogress nounwind uwtable
define linkonce_odr hidden noundef nonnull align 4 dereferenceable(16) ptr @_ZN18default_hash_entryIN2dd11pdd_manager4nodeEE8get_dataEv(ptr noundef nonnull align 4 dereferenceable(24) %0) #5 comdat align 2 {
  %2 = alloca ptr, align 8
  store ptr %0, ptr %2, align 8, !tbaa !120
  %3 = load ptr, ptr %2, align 8
  %4 = getelementptr inbounds nuw %class.default_hash_entry.21, ptr %3, i32 0, i32 2
  ret ptr %4
}

; Function Attrs: mustprogress uwtable
define linkonce_odr hidden noundef ptr @_ZN14core_hashtableI18default_hash_entryIN2dd11pdd_manager4nodeEENS2_9hash_nodeENS2_7eq_nodeEE20insert_if_not_there2ERKS3_(ptr noundef nonnull align 8 dereferenceable(20) %0, ptr noundef nonnull align 4 dereferenceable(16) %1) #4 comdat align 2 {
  %3 = alloca ptr, align 8
  %4 = alloca ptr, align 8
  %5 = alloca ptr, align 8
  store ptr %0, ptr %3, align 8, !tbaa !102
  store ptr %1, ptr %4, align 8, !tbaa !124
  %6 = load ptr, ptr %3, align 8
  call void @llvm.lifetime.start.p0(i64 8, ptr %5) #3
  store ptr null, ptr %5, align 8, !tbaa !120
  %7 = load ptr, ptr %4, align 8, !tbaa !124
  %8 = call noundef zeroext i1 @_ZN14core_hashtableI18default_hash_entryIN2dd11pdd_manager4nodeEENS2_9hash_nodeENS2_7eq_nodeEE24insert_if_not_there_coreERKS3_RPS4_(ptr noundef nonnull align 8 dereferenceable(20) %6, ptr noundef nonnull align 4 dereferenceable(16) %7, ptr noundef nonnull align 8 dereferenceable(8) %5)
  %9 = load ptr, ptr %5, align 8, !tbaa !120
  call void @llvm.lifetime.end.p0(i64 8, ptr %5) #3
  ret ptr %9
}

; Function Attrs: mustprogress uwtable
define hidden noundef i32 @_ZN2dd11pdd_manager11insert_nodeERKNS0_4nodeE(ptr noundef nonnull align 8 dereferenceable(952) %0, ptr noundef nonnull align 4 dereferenceable(16) %1) #4 align 2 {
  %3 = alloca i32, align 4
  %4 = alloca ptr, align 8
  %5 = alloca ptr, align 8
  %6 = alloca ptr, align 8
  %7 = alloca i32, align 4
  %8 = alloca i32, align 4
  %9 = alloca i8, align 1
  %10 = alloca i32, align 4
  store ptr %0, ptr %4, align 8, !tbaa !3
  store ptr %1, ptr %5, align 8, !tbaa !124
  %11 = load ptr, ptr %4, align 8
  call void @llvm.lifetime.start.p0(i64 8, ptr %6) #3
  %12 = getelementptr inbounds nuw %"class.dd::pdd_manager", ptr %11, i32 0, i32 4
  %13 = load ptr, ptr %5, align 8, !tbaa !124
  %14 = call noundef ptr @_ZN14core_hashtableI18default_hash_entryIN2dd11pdd_manager4nodeEENS2_9hash_nodeENS2_7eq_nodeEE20insert_if_not_there2ERKS3_(ptr noundef nonnull align 8 dereferenceable(20) %12, ptr noundef nonnull align 4 dereferenceable(16) %13)
  store ptr %14, ptr %6, align 8, !tbaa !120
  %15 = load ptr, ptr %6, align 8, !tbaa !120
  %16 = call noundef nonnull align 4 dereferenceable(16) ptr @_ZN18default_hash_entryIN2dd11pdd_manager4nodeEE8get_dataEv(ptr noundef nonnull align 4 dereferenceable(24) %15)
  %17 = getelementptr inbounds nuw %"struct.dd::pdd_manager::node", ptr %16, i32 0, i32 3
  %18 = load i32, ptr %17, align 4, !tbaa !95
  %19 = icmp ne i32 %18, 0
  br i1 %19, label %20, label %26

20:                                               ; preds = %2
  call void @llvm.lifetime.start.p0(i64 4, ptr %7) #3
  %21 = load ptr, ptr %6, align 8, !tbaa !120
  %22 = call noundef nonnull align 4 dereferenceable(16) ptr @_ZN18default_hash_entryIN2dd11pdd_manager4nodeEE8get_dataEv(ptr noundef nonnull align 4 dereferenceable(24) %21)
  %23 = getelementptr inbounds nuw %"struct.dd::pdd_manager::node", ptr %22, i32 0, i32 3
  %24 = load i32, ptr %23, align 4, !tbaa !95
  store i32 %24, ptr %7, align 4, !tbaa !8
  %25 = load i32, ptr %7, align 4, !tbaa !8
  store i32 %25, ptr %3, align 4
  store i32 1, ptr %8, align 4
  call void @llvm.lifetime.end.p0(i64 4, ptr %7) #3
  br label %81

26:                                               ; preds = %2
  %27 = load ptr, ptr %6, align 8, !tbaa !120
  %28 = call noundef nonnull align 4 dereferenceable(16) ptr @_ZN18default_hash_entryIN2dd11pdd_manager4nodeEE8get_dataEv(ptr noundef nonnull align 4 dereferenceable(24) %27)
  %29 = load i32, ptr %28, align 4
  %30 = and i32 %29, -1024
  %31 = or i32 %30, 0
  store i32 %31, ptr %28, align 4
  call void @llvm.lifetime.start.p0(i64 1, ptr %9) #3
  %32 = getelementptr inbounds nuw %"class.dd::pdd_manager", ptr %11, i32 0, i32 11
  %33 = call noundef zeroext i1 @_ZNK6vectorIjLb0EjE5emptyEv(ptr noundef nonnull align 8 dereferenceable(8) %32)
  %34 = zext i1 %33 to i8
  store i8 %34, ptr %9, align 1, !tbaa !199
  %35 = load i8, ptr %9, align 1, !tbaa !199, !range !200, !noundef !201
  %36 = trunc i8 %35 to i1
  br i1 %36, label %37, label %50

37:                                               ; preds = %26
  %38 = getelementptr inbounds nuw %"class.dd::pdd_manager", ptr %11, i32 0, i32 18
  %39 = load i8, ptr %38, align 8, !tbaa !50, !range !200, !noundef !201
  %40 = trunc i8 %39 to i1
  br i1 %40, label %50, label %41

41:                                               ; preds = %37
  call void @_ZN2dd11pdd_manager2gcEv(ptr noundef nonnull align 8 dereferenceable(952) %11)
  %42 = getelementptr inbounds nuw %"class.dd::pdd_manager", ptr %11, i32 0, i32 4
  %43 = load ptr, ptr %5, align 8, !tbaa !124
  %44 = call noundef ptr @_ZN14core_hashtableI18default_hash_entryIN2dd11pdd_manager4nodeEENS2_9hash_nodeENS2_7eq_nodeEE20insert_if_not_there2ERKS3_(ptr noundef nonnull align 8 dereferenceable(20) %42, ptr noundef nonnull align 4 dereferenceable(16) %43)
  store ptr %44, ptr %6, align 8, !tbaa !120
  %45 = load ptr, ptr %6, align 8, !tbaa !120
  %46 = call noundef nonnull align 4 dereferenceable(16) ptr @_ZN18default_hash_entryIN2dd11pdd_manager4nodeEE8get_dataEv(ptr noundef nonnull align 4 dereferenceable(24) %45)
  %47 = load i32, ptr %46, align 4
  %48 = and i32 %47, -1024
  %49 = or i32 %48, 0
  store i32 %49, ptr %46, align 4
  br label %50

50:                                               ; preds = %41, %37, %26
  %51 = load i8, ptr %9, align 1, !tbaa !199, !range !200, !noundef !201
  %52 = trunc i8 %51 to i1
  br i1 %52, label %53, label %65

53:                                               ; preds = %50
  %54 = getelementptr inbounds nuw %"class.dd::pdd_manager", ptr %11, i32 0, i32 0
  %55 = call noundef i32 @_ZNK6vectorIN2dd11pdd_manager4nodeELb0EjE4sizeEv(ptr noundef nonnull align 8 dereferenceable(8) %54)
  %56 = getelementptr inbounds nuw %"class.dd::pdd_manager", ptr %11, i32 0, i32 20
  %57 = load i32, ptr %56, align 4, !tbaa !47
  %58 = icmp ugt i32 %55, %57
  br i1 %58, label %59, label %61

59:                                               ; preds = %53
  %60 = call ptr @__cxa_allocate_exception(i64 1) #3
  call void @__cxa_throw(ptr %60, ptr @_ZTIN2dd11pdd_manager7mem_outE, ptr null) #22
  unreachable

61:                                               ; preds = %53
  %62 = getelementptr inbounds nuw %"class.dd::pdd_manager", ptr %11, i32 0, i32 0
  %63 = call noundef i32 @_ZNK6vectorIN2dd11pdd_manager4nodeELb0EjE4sizeEv(ptr noundef nonnull align 8 dereferenceable(8) %62)
  %64 = udiv i32 %63, 2
  call void @_ZN2dd11pdd_manager16alloc_free_nodesEj(ptr noundef nonnull align 8 dereferenceable(952) %11, i32 noundef %64)
  br label %65

65:                                               ; preds = %61, %50
  call void @llvm.lifetime.start.p0(i64 4, ptr %10) #3
  %66 = getelementptr inbounds nuw %"class.dd::pdd_manager", ptr %11, i32 0, i32 11
  %67 = call noundef nonnull align 4 dereferenceable(4) ptr @_ZN6vectorIjLb0EjE4backEv(ptr noundef nonnull align 8 dereferenceable(8) %66)
  %68 = load i32, ptr %67, align 4, !tbaa !8
  store i32 %68, ptr %10, align 4, !tbaa !8
  %69 = getelementptr inbounds nuw %"class.dd::pdd_manager", ptr %11, i32 0, i32 11
  call void @_ZN6vectorIjLb0EjE8pop_backEv(ptr noundef nonnull align 8 dereferenceable(8) %69)
  %70 = load i32, ptr %10, align 4, !tbaa !8
  %71 = load ptr, ptr %6, align 8, !tbaa !120
  %72 = call noundef nonnull align 4 dereferenceable(16) ptr @_ZN18default_hash_entryIN2dd11pdd_manager4nodeEE8get_dataEv(ptr noundef nonnull align 4 dereferenceable(24) %71)
  %73 = getelementptr inbounds nuw %"struct.dd::pdd_manager::node", ptr %72, i32 0, i32 3
  store i32 %70, ptr %73, align 4, !tbaa !95
  %74 = load ptr, ptr %6, align 8, !tbaa !120
  %75 = call noundef nonnull align 4 dereferenceable(16) ptr @_ZN18default_hash_entryIN2dd11pdd_manager4nodeEE8get_dataEv(ptr noundef nonnull align 4 dereferenceable(24) %74)
  %76 = getelementptr inbounds nuw %"class.dd::pdd_manager", ptr %11, i32 0, i32 0
  %77 = load i32, ptr %10, align 4, !tbaa !8
  %78 = call noundef nonnull align 4 dereferenceable(16) ptr @_ZN6vectorIN2dd11pdd_manager4nodeELb0EjEixEj(ptr noundef nonnull align 8 dereferenceable(8) %76, i32 noundef %77)
  call void @llvm.memcpy.p0.p0.i64(ptr align 4 %78, ptr align 4 %75, i64 16, i1 false), !tbaa.struct !125
  %79 = getelementptr inbounds nuw %"class.dd::pdd_manager", ptr %11, i32 0, i32 19
  store i8 1, ptr %79, align 1, !tbaa !51
  %80 = load i32, ptr %10, align 4, !tbaa !8
  store i32 %80, ptr %3, align 4
  store i32 1, ptr %8, align 4
  call void @llvm.lifetime.end.p0(i64 4, ptr %10) #3
  call void @llvm.lifetime.end.p0(i64 1, ptr %9) #3
  br label %81

81:                                               ; preds = %65, %20
  call void @llvm.lifetime.end.p0(i64 8, ptr %6) #3
  %82 = load i32, ptr %3, align 4
  ret i32 %82
}