; Function Attrs: mustprogress uwtable
define hidden noundef i32 @_ZN2dd11pdd_manager11insert_nodeERKNS0_4nodeE(ptr noundef nonnull align 8 dereferenceable(952) %0, ptr noundef nonnull readonly align 4 captures(none) dereferenceable(16) %1) local_unnamed_addr #3 align 2 {
  %3 = alloca %"struct.dd::pdd_manager::node", align 4
  %4 = alloca ptr, align 8
  %5 = alloca %"struct.dd::pdd_manager::node", align 4
  %6 = alloca ptr, align 8
  %7 = getelementptr inbounds nuw i8, ptr %0, i64 64
  call void @llvm.lifetime.start.p0(i64 8, ptr nonnull %6) #29
  store ptr null, ptr %6, align 8, !tbaa !467
  call void @llvm.lifetime.start.p0(i64 16, ptr nonnull %5) #29
  call void @llvm.memcpy.p0.p0.i64(ptr noundef nonnull align 4 dereferenceable(16) %5, ptr noundef nonnull align 4 dereferenceable(16) %1, i64 16, i1 false), !tbaa.struct !468
  %8 = call noundef zeroext i1 @_ZN14core_hashtableI18default_hash_entryIN2dd11pdd_manager4nodeEENS2_9hash_nodeENS2_7eq_nodeEE24insert_if_not_there_coreEOS3_RPS4_(ptr noundef nonnull align 8 dereferenceable(20) %7, ptr noundef nonnull align 4 dereferenceable(16) %5, ptr noundef nonnull align 8 dereferenceable(8) %6)
  call void @llvm.lifetime.end.p0(i64 16, ptr nonnull %5) #29
  %9 = load ptr, ptr %6, align 8, !tbaa !467
  call void @llvm.lifetime.end.p0(i64 8, ptr nonnull %6) #29
  %10 = getelementptr inbounds nuw i8, ptr %9, i64 20
  %11 = load i32, ptr %10, align 4, !tbaa !98
  %.not = icmp eq i32 %11, 0
  br i1 %.not, label %12, label %58

12:                                               ; preds = %2
  %13 = getelementptr inbounds nuw i8, ptr %9, i64 8
  %14 = load i32, ptr %13, align 4
  %15 = and i32 %14, -1024
  store i32 %15, ptr %13, align 4
  %16 = getelementptr inbounds nuw i8, ptr %0, i64 152
  %17 = load ptr, ptr %16, align 8, !tbaa !53
  %18 = icmp eq ptr %17, null
  br i1 %18, label %_ZNK6vectorIjLb0EjE5emptyEv.exit.thread, label %_ZNK6vectorIjLb0EjE5emptyEv.exit

_ZNK6vectorIjLb0EjE5emptyEv.exit:                 ; preds = %12
  %19 = getelementptr inbounds i8, ptr %17, i64 -4
  %20 = load i32, ptr %19, align 4, !tbaa !83
  %21 = icmp eq i32 %20, 0
  br i1 %21, label %_ZNK6vectorIjLb0EjE5emptyEv.exit.thread, label %.thread

_ZNK6vectorIjLb0EjE5emptyEv.exit.thread:          ; preds = %12, %_ZNK6vectorIjLb0EjE5emptyEv.exit
  %22 = getelementptr inbounds nuw i8, ptr %0, i64 720
  %23 = load i8, ptr %22, align 8, !tbaa !80, !range !286, !noundef !287
  %24 = trunc nuw i8 %23 to i1
  br i1 %24, label %31, label %25

25:                                               ; preds = %_ZNK6vectorIjLb0EjE5emptyEv.exit.thread
  call void @_ZN2dd11pdd_manager2gcEv(ptr noundef nonnull align 8 dereferenceable(952) %0)
  call void @llvm.lifetime.start.p0(i64 8, ptr nonnull %4) #29
  store ptr null, ptr %4, align 8, !tbaa !467
  call void @llvm.lifetime.start.p0(i64 16, ptr nonnull %3) #29
  call void @llvm.memcpy.p0.p0.i64(ptr noundef nonnull align 4 dereferenceable(16) %3, ptr noundef nonnull align 4 dereferenceable(16) %1, i64 16, i1 false), !tbaa.struct !468
  %26 = call noundef zeroext i1 @_ZN14core_hashtableI18default_hash_entryIN2dd11pdd_manager4nodeEENS2_9hash_nodeENS2_7eq_nodeEE24insert_if_not_there_coreEOS3_RPS4_(ptr noundef nonnull align 8 dereferenceable(20) %7, ptr noundef nonnull align 4 dereferenceable(16) %3, ptr noundef nonnull align 8 dereferenceable(8) %4)
  call void @llvm.lifetime.end.p0(i64 16, ptr nonnull %3) #29
  %27 = load ptr, ptr %4, align 8, !tbaa !467
  call void @llvm.lifetime.end.p0(i64 8, ptr nonnull %4) #29
  %28 = getelementptr inbounds nuw i8, ptr %27, i64 8
  %29 = load i32, ptr %28, align 4
  %30 = and i32 %29, -1024
  store i32 %30, ptr %28, align 4
  br label %31

31:                                               ; preds = %_ZNK6vectorIjLb0EjE5emptyEv.exit.thread, %25
  %.015.ph = phi ptr [ %27, %25 ], [ %9, %_ZNK6vectorIjLb0EjE5emptyEv.exit.thread ]
  %32 = load ptr, ptr %0, align 8, !tbaa !91
  %33 = icmp eq ptr %32, null
  br i1 %33, label %43, label %_ZNK6vectorIN2dd11pdd_manager4nodeELb0EjE4sizeEv.exit

_ZNK6vectorIN2dd11pdd_manager4nodeELb0EjE4sizeEv.exit: ; preds = %31
  %34 = getelementptr inbounds i8, ptr %32, i64 -4
  %35 = load i32, ptr %34, align 4, !tbaa !83
  %36 = getelementptr inbounds nuw i8, ptr %0, i64 724
  %37 = load i32, ptr %36, align 4, !tbaa !77
  %38 = icmp ugt i32 %35, %37
  br i1 %38, label %39, label %41

39:                                               ; preds = %_ZNK6vectorIN2dd11pdd_manager4nodeELb0EjE4sizeEv.exit
  %40 = call ptr @__cxa_allocate_exception(i64 1) #29
  call void @__cxa_throw(ptr %40, ptr nonnull @_ZTIN2dd11pdd_manager7mem_outE, ptr null) #31
  unreachable

41:                                               ; preds = %_ZNK6vectorIN2dd11pdd_manager4nodeELb0EjE4sizeEv.exit
  %42 = lshr i32 %35, 1
  br label %43

43:                                               ; preds = %41, %31
  %.0.i16 = phi i32 [ %42, %41 ], [ 0, %31 ]
  call void @_ZN2dd11pdd_manager16alloc_free_nodesEj(ptr noundef nonnull align 8 dereferenceable(952) %0, i32 noundef %.0.i16)
  %.pre = load ptr, ptr %16, align 8, !tbaa !53, !nonnull !287, !noundef !287
  br label %.thread

.thread:                                          ; preds = %43, %_ZNK6vectorIjLb0EjE5emptyEv.exit
  %.0151927 = phi ptr [ %.015.ph, %43 ], [ %9, %_ZNK6vectorIjLb0EjE5emptyEv.exit ]
  %44 = phi ptr [ %.pre, %43 ], [ %17, %_ZNK6vectorIjLb0EjE5emptyEv.exit ]
  %45 = getelementptr inbounds i8, ptr %44, i64 -4
  %46 = load i32, ptr %45, align 4, !tbaa !83
  %47 = add i32 %46, -1
  %48 = zext i32 %47 to i64
  %49 = getelementptr inbounds nuw i32, ptr %44, i64 %48
  %50 = load i32, ptr %49, align 4, !tbaa !83
  %51 = getelementptr inbounds i8, ptr %44, i64 -4
  store i32 %47, ptr %51, align 4, !tbaa !83
  %52 = getelementptr inbounds nuw i8, ptr %.0151927, i64 8
  %53 = getelementptr inbounds nuw i8, ptr %.0151927, i64 20
  store i32 %50, ptr %53, align 4, !tbaa !98
  %54 = load ptr, ptr %0, align 8, !tbaa !91
  %55 = zext i32 %50 to i64
  %56 = getelementptr inbounds nuw %"struct.dd::pdd_manager::node", ptr %54, i64 %55
  call void @llvm.memcpy.p0.p0.i64(ptr noundef nonnull align 4 dereferenceable(16) %56, ptr noundef nonnull align 4 dereferenceable(16) %52, i64 16, i1 false), !tbaa.struct !468
  %57 = getelementptr inbounds nuw i8, ptr %0, i64 721
  store i8 1, ptr %57, align 1, !tbaa !81
  br label %58

58:                                               ; preds = %2, %.thread
  %.0 = phi i32 [ %50, %.thread ], [ %11, %2 ]
  ret i32 %.0
}